; Function Attrs: mustprogress uwtable
define void @_ZN32pxrInternal_v0_24__pxrReserved__15HdChangeTracker15_LogCacheAccessERKNS_7TfTokenERKNS_7SdfPathEb(ptr noundef nonnull align 8 dereferenceable(8) %0, ptr noundef nonnull align 4 dereferenceable(8) %1, i1 noundef zeroext %2) local_unnamed_addr #8 align 2 personality ptr @__gxx_personality_v0 {
  %4 = alloca %"class.pxrInternal_v0_24__pxrReserved__::TfToken", align 8
  %5 = alloca %"class.pxrInternal_v0_24__pxrReserved__::TfToken", align 8
  %6 = load atomic i64, ptr @_ZN32pxrInternal_v0_24__pxrReserved__11TfSingletonINS_9HdPerfLogEE9_instanceE seq_cst, align 8
  %.0.i.i.i = inttoptr i64 %6 to ptr
  %.not.i.i = icmp eq i64 %6, 0
  br i1 %2, label %7, label %19

7:                                                ; preds = %3
  br i1 %.not.i.i, label %8, label %_ZN32pxrInternal_v0_24__pxrReserved__9HdPerfLog11GetInstanceEv.exit

8:                                                ; preds = %7
  %9 = tail call noundef ptr @_ZN32pxrInternal_v0_24__pxrReserved__11TfSingletonINS_9HdPerfLogEE15_CreateInstanceERSt6atomicIPS1_E(ptr noundef nonnull align 8 dereferenceable(8) @_ZN32pxrInternal_v0_24__pxrReserved__11TfSingletonINS_9HdPerfLogEE9_instanceE)
  br label %_ZN32pxrInternal_v0_24__pxrReserved__9HdPerfLog11GetInstanceEv.exit

_ZN32pxrInternal_v0_24__pxrReserved__9HdPerfLog11GetInstanceEv.exit: ; preds = %7, %8
  %.0.i.i = phi ptr [ %.0.i.i.i, %7 ], [ %9, %8 ]
  store ptr null, ptr %4, align 8
  invoke void @_ZN32pxrInternal_v0_24__pxrReserved__9HdPerfLog11AddCacheHitERKNS_7TfTokenERKNS_7SdfPathES3_(ptr noundef nonnull align 8 dereferenceable(184) %.0.i.i, ptr noundef nonnull align 8 dereferenceable(8) %0, ptr noundef nonnull align 4 dereferenceable(8) %1, ptr noundef nonnull align 8 dereferenceable(8) %4)
          to label %10 unwind label %14

10:                                               ; preds = %_ZN32pxrInternal_v0_24__pxrReserved__9HdPerfLog11GetInstanceEv.exit
  %11 = load ptr, ptr %4, align 8
  %12 = ptrtoint ptr %11 to i64
  %13 = and i64 %12, 7
  %.not.i.i8 = icmp eq i64 %13, 0
  br i1 %.not.i.i8, label %_ZN32pxrInternal_v0_24__pxrReserved__7TfTokenD2Ev.exit, label %_ZN32pxrInternal_v0_24__pxrReserved__7TfTokenD2Ev.exit.sink.split

14:                                               ; preds = %_ZN32pxrInternal_v0_24__pxrReserved__9HdPerfLog11GetInstanceEv.exit
  %15 = landingpad { ptr, i32 }
          cleanup
  %16 = load ptr, ptr %4, align 8
  %17 = ptrtoint ptr %16 to i64
  %18 = and i64 %17, 7
  %.not.i.i9 = icmp eq i64 %18, 0
  br i1 %.not.i.i9, label %_ZN32pxrInternal_v0_24__pxrReserved__7TfTokenD2Ev.exit10, label %_ZN32pxrInternal_v0_24__pxrReserved__7TfTokenD2Ev.exit10.sink.split

19:                                               ; preds = %3
  br i1 %.not.i.i, label %20, label %_ZN32pxrInternal_v0_24__pxrReserved__9HdPerfLog11GetInstanceEv.exit14

20:                                               ; preds = %19
  %21 = tail call noundef ptr @_ZN32pxrInternal_v0_24__pxrReserved__11TfSingletonINS_9HdPerfLogEE15_CreateInstanceERSt6atomicIPS1_E(ptr noundef nonnull align 8 dereferenceable(8) @_ZN32pxrInternal_v0_24__pxrReserved__11TfSingletonINS_9HdPerfLogEE9_instanceE)
  br label %_ZN32pxrInternal_v0_24__pxrReserved__9HdPerfLog11GetInstanceEv.exit14

_ZN32pxrInternal_v0_24__pxrReserved__9HdPerfLog11GetInstanceEv.exit14: ; preds = %19, %20
  %.0.i.i13 = phi ptr [ %.0.i.i.i, %19 ], [ %21, %20 ]
  store ptr null, ptr %5, align 8
  invoke void @_ZN32pxrInternal_v0_24__pxrReserved__9HdPerfLog12AddCacheMissERKNS_7TfTokenERKNS_7SdfPathES3_(ptr noundef nonnull align 8 dereferenceable(184) %.0.i.i13, ptr noundef nonnull align 8 dereferenceable(8) %0, ptr noundef nonnull align 4 dereferenceable(8) %1, ptr noundef nonnull align 8 dereferenceable(8) %5)
          to label %22 unwind label %26

22:                                               ; preds = %_ZN32pxrInternal_v0_24__pxrReserved__9HdPerfLog11GetInstanceEv.exit14
  %23 = load ptr, ptr %5, align 8
  %24 = ptrtoint ptr %23 to i64
  %25 = and i64 %24, 7
  %.not.i.i15 = icmp eq i64 %25, 0
  br i1 %.not.i.i15, label %_ZN32pxrInternal_v0_24__pxrReserved__7TfTokenD2Ev.exit, label %_ZN32pxrInternal_v0_24__pxrReserved__7TfTokenD2Ev.exit.sink.split

26:                                               ; preds = %_ZN32pxrInternal_v0_24__pxrReserved__9HdPerfLog11GetInstanceEv.exit14
  %27 = landingpad { ptr, i32 }
          cleanup
  %28 = load ptr, ptr %5, align 8
  %29 = ptrtoint ptr %28 to i64
  %30 = and i64 %29, 7
  %.not.i.i17 = icmp eq i64 %30, 0
  br i1 %.not.i.i17, label %_ZN32pxrInternal_v0_24__pxrReserved__7TfTokenD2Ev.exit10, label %_ZN32pxrInternal_v0_24__pxrReserved__7TfTokenD2Ev.exit10.sink.split

_ZN32pxrInternal_v0_24__pxrReserved__7TfTokenD2Ev.exit.sink.split: ; preds = %22, %10
  %.sink = phi i64 [ %12, %10 ], [ %24, %22 ]
  %31 = and i64 %.sink, -8
  %32 = inttoptr i64 %31 to ptr
  %33 = atomicrmw sub ptr %32, i32 2 release, align 4
  br label %_ZN32pxrInternal_v0_24__pxrReserved__7TfTokenD2Ev.exit

_ZN32pxrInternal_v0_24__pxrReserved__7TfTokenD2Ev.exit: ; preds = %_ZN32pxrInternal_v0_24__pxrReserved__7TfTokenD2Ev.exit.sink.split, %22, %10
  ret void

_ZN32pxrInternal_v0_24__pxrReserved__7TfTokenD2Ev.exit10.sink.split: ; preds = %26, %14
  %.sink22 = phi i64 [ %17, %14 ], [ %29, %26 ]
  %.pn.ph = phi { ptr, i32 } [ %15, %14 ], [ %27, %26 ]
  %34 = and i64 %.sink22, -8
  %35 = inttoptr i64 %34 to ptr
  %36 = atomicrmw sub ptr %35, i32 2 release, align 4
  br label %_ZN32pxrInternal_v0_24__pxrReserved__7TfTokenD2Ev.exit10

_ZN32pxrInternal_v0_24__pxrReserved__7TfTokenD2Ev.exit10: ; preds = %_ZN32pxrInternal_v0_24__pxrReserved__7TfTokenD2Ev.exit10.sink.split, %26, %14
  %.pn = phi { ptr, i32 } [ %15, %14 ], [ %27, %26 ], [ %.pn.ph, %_ZN32pxrInternal_v0_24__pxrReserved__7TfTokenD2Ev.exit10.sink.split ]
  resume { ptr, i32 } %.pn
}